target datalayout = "e-m:e-p270:32:32-p271:32:32-p272:64:64-i64:64-i128:128-f80:128-n8:16:32:64-S128"
target triple = "x86_64-pc-linux-gnu"

%"struct.cmExprParserHelper::ParserType" = type { i64 }

@stderr = external global ptr, align 8
@.str.6 = private unnamed_addr constant [2 x i8] c"\0A\00", align 1
@_ZL4yyr2 = internal constant [25 x i8] c"\00\02\01\01\03\01\03\01\03\01\03\03\01\03\03\01\03\03\03\01\02\02\02\01\03", align 16
@_ZL6yystos = internal constant [41 x i8] c"\00\03\04\0A\0F\10\12\13\14\15\16\17\18\19\1A\19\19\13\19\00\0C\0E\0D\08\09\03\04\05\06\07\0B\14\15\16\17\17\18\18\19\19\19", align 16
@.str.18 = private unnamed_addr constant [8 x i8] c"%s %s (\00", align 1
@.str.19 = private unnamed_addr constant [6 x i8] c"token\00", align 1
@.str.20 = private unnamed_addr constant [6 x i8] c"nterm\00", align 1
@.str.21 = private unnamed_addr constant [2 x i8] c")\00", align 1
@_ZL7yyrline = internal constant [25 x i8] c"\00WW\\_dglotwz\7F\82\85\8A\8D\90\96\9B\9E\A1\A4\A9\AC", align 16
@.str.49 = private unnamed_addr constant [38 x i8] c"Reducing stack by rule %d (line %d):\0A\00", align 1
@.str.50 = private unnamed_addr constant [10 x i8] c"   $%d = \00", align 1

; Function Attrs: mustprogress nounwind uwtable
define internal void @_ZL21yy_symbol_value_printP8_IO_FILE15yysymbol_kind_tPKN18cmExprParserHelper10ParserTypeEPv(ptr noundef %0, i32 noundef %1, ptr noundef %2, ptr noundef %3) #4 {
  %5 = alloca ptr, align 8
  %6 = alloca i32, align 4
  %7 = alloca ptr, align 8
  %8 = alloca ptr, align 8
  %9 = alloca ptr, align 8
  %10 = alloca i32, align 4
  store ptr %0, ptr %5, align 8, !tbaa !19
  store i32 %1, ptr %6, align 4, !tbaa !17
  store ptr %2, ptr %7, align 8, !tbaa !15
  store ptr %3, ptr %8, align 8, !tbaa !4
  call void @llvm.lifetime.start.p0(i64 8, ptr %9) #8
  %11 = load ptr, ptr %5, align 8, !tbaa !19
  store ptr %11, ptr %9, align 8, !tbaa !19
  %12 = load ptr, ptr %7, align 8, !tbaa !15
  %13 = icmp ne ptr %12, null
  br i1 %13, label %15, label %14

14:                                               ; preds = %4
  store i32 1, ptr %10, align 4
  br label %16

15:                                               ; preds = %4
  store i32 0, ptr %10, align 4
  br label %16

16:                                               ; preds = %15, %14
  call void @llvm.lifetime.end.p0(i64 8, ptr %9) #8
  %17 = load i32, ptr %10, align 4
  switch i32 %17, label %19 [
    i32 0, label %18
    i32 1, label %18
  ]

18:                                               ; preds = %16, %16
  ret void

19:                                               ; preds = %16
  unreachable
}

; Function Attrs: mustprogress nounwind uwtable
define internal noundef ptr @_ZL13yysymbol_name15yysymbol_kind_t(i32 noundef %0) #4 {
  %2 = alloca i32, align 4
  store i32 %0, ptr %2, align 4, !tbaa !17
  %3 = load i32, ptr %2, align 4, !tbaa !17
  %4 = sext i32 %3 to i64
  %5 = getelementptr inbounds [28 x ptr], ptr @_ZL7yytname, i64 0, i64 %4
  %6 = load ptr, ptr %5, align 8, !tbaa !13
  ret ptr %6
}

; Function Attrs: mustprogress uwtable
define internal void @_ZL15yy_symbol_printP8_IO_FILE15yysymbol_kind_tPKN18cmExprParserHelper10ParserTypeEPv(ptr noundef %0, i32 noundef %1, ptr noundef %2, ptr noundef %3) #0 {
  %5 = alloca ptr, align 8
  %6 = alloca i32, align 4
  %7 = alloca ptr, align 8
  %8 = alloca ptr, align 8
  store ptr %0, ptr %5, align 8, !tbaa !19
  store i32 %1, ptr %6, align 4, !tbaa !17
  store ptr %2, ptr %7, align 8, !tbaa !15
  store ptr %3, ptr %8, align 8, !tbaa !4
  %9 = load ptr, ptr %5, align 8, !tbaa !19
  %10 = load i32, ptr %6, align 4, !tbaa !17
  %11 = icmp slt i32 %10, 17
  br i1 %11, label %12, label %13

12:                                               ; preds = %4
  br label %14

13:                                               ; preds = %4
  br label %14

14:                                               ; preds = %13, %12
  %15 = phi ptr [ @.str.19, %12 ], [ @.str.20, %13 ]
  %16 = getelementptr inbounds [6 x i8], ptr %15, i64 0, i64 0
  %17 = load i32, ptr %6, align 4, !tbaa !17
  %18 = call noundef ptr @_ZL13yysymbol_name15yysymbol_kind_t(i32 noundef %17)
  %19 = call i32 (ptr, ptr, ...) @fprintf(ptr noundef %9, ptr noundef @.str.18, ptr noundef %16, ptr noundef %18) #8
  %20 = load ptr, ptr %5, align 8, !tbaa !19
  %21 = load i32, ptr %6, align 4, !tbaa !17
  %22 = load ptr, ptr %7, align 8, !tbaa !15
  %23 = load ptr, ptr %8, align 8, !tbaa !4
  call void @_ZL21yy_symbol_value_printP8_IO_FILE15yysymbol_kind_tPKN18cmExprParserHelper10ParserTypeEPv(ptr noundef %20, i32 noundef %21, ptr noundef %22, ptr noundef %23)
  %24 = load ptr, ptr %5, align 8, !tbaa !19
  %25 = call i32 (ptr, ptr, ...) @fprintf(ptr noundef %24, ptr noundef @.str.21) #8
  ret void
}

; Function Attrs: mustprogress uwtable
define internal void @_ZL15yy_reduce_printPaPN18cmExprParserHelper10ParserTypeEiPv(ptr noundef %0, ptr noundef %1, i32 noundef %2, ptr noundef %3) #0 {
  %5 = alloca ptr, align 8
  %6 = alloca ptr, align 8
  %7 = alloca i32, align 4
  %8 = alloca ptr, align 8
  %9 = alloca i32, align 4
  %10 = alloca i32, align 4
  %11 = alloca i32, align 4
  store ptr %0, ptr %5, align 8, !tbaa !13
  store ptr %1, ptr %6, align 8, !tbaa !15
  store i32 %2, ptr %7, align 4, !tbaa !11
  store ptr %3, ptr %8, align 8, !tbaa !4
  call void @llvm.lifetime.start.p0(i64 4, ptr %9) #8
  %12 = load i32, ptr %7, align 4, !tbaa !11
  %13 = sext i32 %12 to i64
  %14 = getelementptr inbounds [25 x i8], ptr @_ZL7yyrline, i64 0, i64 %13
  %15 = load i8, ptr %14, align 1, !tbaa !21
  %16 = zext i8 %15 to i32
  store i32 %16, ptr %9, align 4, !tbaa !11
  call void @llvm.lifetime.start.p0(i64 4, ptr %10) #8
  %17 = load i32, ptr %7, align 4, !tbaa !11
  %18 = sext i32 %17 to i64
  %19 = getelementptr inbounds [25 x i8], ptr @_ZL4yyr2, i64 0, i64 %18
  %20 = load i8, ptr %19, align 1, !tbaa !21
  %21 = sext i8 %20 to i32
  store i32 %21, ptr %10, align 4, !tbaa !11
  call void @llvm.lifetime.start.p0(i64 4, ptr %11) #8
  %22 = load ptr, ptr @stderr, align 8, !tbaa !19
  %23 = load i32, ptr %7, align 4, !tbaa !11
  %24 = sub nsw i32 %23, 1
  %25 = load i32, ptr %9, align 4, !tbaa !11
  %26 = call i32 (ptr, ptr, ...) @fprintf(ptr noundef %22, ptr noundef @.str.49, i32 noundef %24, i32 noundef %25) #8
  store i32 0, ptr %11, align 4, !tbaa !11
  br label %27

27:                                               ; preds = %60, %4
  %28 = load i32, ptr %11, align 4, !tbaa !11
  %29 = load i32, ptr %10, align 4, !tbaa !11
  %30 = icmp slt i32 %28, %29
  br i1 %30, label %31, label %63

31:                                               ; preds = %27
  %32 = load ptr, ptr @stderr, align 8, !tbaa !19
  %33 = load i32, ptr %11, align 4, !tbaa !11
  %34 = add nsw i32 %33, 1
  %35 = call i32 (ptr, ptr, ...) @fprintf(ptr noundef %32, ptr noundef @.str.50, i32 noundef %34) #8
  %36 = load ptr, ptr @stderr, align 8, !tbaa !19
  %37 = load ptr, ptr %5, align 8, !tbaa !13
  %38 = load i32, ptr %11, align 4, !tbaa !11
  %39 = add nsw i32 %38, 1
  %40 = load i32, ptr %10, align 4, !tbaa !11
  %41 = sub nsw i32 %39, %40
  %42 = sext i32 %41 to i64
  %43 = getelementptr inbounds i8, ptr %37, i64 %42
  %44 = load i8, ptr %43, align 1, !tbaa !21
  %45 = sext i8 %44 to i32
  %46 = sext i32 %45 to i64
  %47 = getelementptr inbounds [41 x i8], ptr @_ZL6yystos, i64 0, i64 %46
  %48 = load i8, ptr %47, align 1, !tbaa !21
  %49 = sext i8 %48 to i32
  %50 = load ptr, ptr %6, align 8, !tbaa !15
  %51 = load i32, ptr %11, align 4, !tbaa !11
  %52 = add nsw i32 %51, 1
  %53 = load i32, ptr %10, align 4, !tbaa !11
  %54 = sub nsw i32 %52, %53
  %55 = sext i32 %54 to i64
  %56 = getelementptr inbounds %"struct.cmExprParserHelper::ParserType", ptr %50, i64 %55
  %57 = load ptr, ptr %8, align 8, !tbaa !4
  call void @_ZL15yy_symbol_printP8_IO_FILE15yysymbol_kind_tPKN18cmExprParserHelper10ParserTypeEPv(ptr noundef %36, i32 noundef %49, ptr noundef %56, ptr noundef %57)
  %58 = load ptr, ptr @stderr, align 8, !tbaa !19
  %59 = call i32 (ptr, ptr, ...) @fprintf(ptr noundef %58, ptr noundef @.str.6) #8
  br label %60

60:                                               ; preds = %31
  %61 = load i32, ptr %11, align 4, !tbaa !11
  %62 = add nsw i32 %61, 1
  store i32 %62, ptr %11, align 4, !tbaa !11
  br label %27, !llvm.loop !31

63:                                               ; preds = %27
  call void @llvm.lifetime.end.p0(i64 4, ptr %11) #8
  call void @llvm.lifetime.end.p0(i64 4, ptr %10) #8
  call void @llvm.lifetime.end.p0(i64 4, ptr %9) #8
  ret void
}