; Function Attrs: cold mustprogress nofree nounwind uwtable
define internal fastcc void @_ZL15yy_reduce_printPaPN18cmExprParserHelper10ParserTypeEiPv(ptr noundef nonnull readonly captures(none) %0, i32 noundef range(i32 -128, 129) %1) unnamed_addr #3 {
  %3 = sext i32 %1 to i64
  %4 = getelementptr inbounds [25 x i8], ptr @_ZL7yyrline, i64 0, i64 %3
  %5 = load i8, ptr %4, align 1, !tbaa !13
  %6 = zext i8 %5 to i32
  %7 = getelementptr inbounds [25 x i8], ptr @_ZL4yyr2, i64 0, i64 %3
  %8 = load i8, ptr %7, align 1, !tbaa !13
  %9 = load ptr, ptr @stderr, align 8, !tbaa !10
  %10 = add nsw i32 %1, -1
  %11 = tail call i32 (ptr, ptr, ...) @fprintf(ptr noundef %9, ptr noundef nonnull @.str.49, i32 noundef %10, i32 noundef %6) #17
  %.not2 = icmp eq i32 %1, 0
  br i1 %.not2, label %._crit_edge, label %.lr.ph.preheader

.lr.ph.preheader:                                 ; preds = %2
  %12 = sext i8 %8 to i64
  %13 = tail call i8 @llvm.smax.i8(i8 %8, i8 1)
  %wide.trip.count = zext nneg i8 %13 to i64
  br label %.lr.ph

.lr.ph:                                           ; preds = %.lr.ph.preheader, %.lr.ph
  %indvars.iv = phi i64 [ 0, %.lr.ph.preheader ], [ %indvars.iv.next, %.lr.ph ]
  %14 = load ptr, ptr @stderr, align 8, !tbaa !10
  %indvars.iv.next = add nuw nsw i64 %indvars.iv, 1
  %15 = trunc nuw nsw i64 %indvars.iv.next to i32
  %16 = tail call i32 (ptr, ptr, ...) @fprintf(ptr noundef %14, ptr noundef nonnull @.str.50, i32 noundef %15) #17
  %17 = load ptr, ptr @stderr, align 8, !tbaa !10
  %18 = sub nsw i64 %indvars.iv.next, %12
  %19 = getelementptr inbounds i8, ptr %0, i64 %18
  %20 = load i8, ptr %19, align 1, !tbaa !13
  %21 = sext i8 %20 to i64
  %22 = getelementptr inbounds [41 x i8], ptr @_ZL6yystos, i64 0, i64 %21
  %23 = load i8, ptr %22, align 1, !tbaa !13
  %24 = shl nuw i64 1, %21
  %25 = and i64 %24, 2146959423
  %.not = icmp eq i64 %25, 0
  %.str.19..str.20.i = select i1 %.not, ptr @.str.20, ptr @.str.19
  %26 = sext i8 %23 to i64
  %27 = getelementptr inbounds [28 x ptr], ptr @_ZL7yytname, i64 0, i64 %26
  %28 = load ptr, ptr %27, align 8, !tbaa !16
  %29 = tail call i32 (ptr, ptr, ...) @fprintf(ptr noundef %17, ptr noundef nonnull @.str.18, ptr noundef nonnull %.str.19..str.20.i, ptr noundef %28) #17
  %fputc.i = tail call i32 @fputc(i32 41, ptr %17)
  %30 = load ptr, ptr @stderr, align 8, !tbaa !10
  %fputc = tail call i32 @fputc(i32 10, ptr %30)
  %exitcond.not = icmp eq i64 %indvars.iv.next, %wide.trip.count
  br i1 %exitcond.not, label %._crit_edge, label %.lr.ph, !llvm.loop !23

._crit_edge:                                      ; preds = %.lr.ph, %2
  ret void
}